ARM GAS  C:\Users\Bebra\AppData\Local\Temp\ccM1EgPj.s 			page 1


   1              		.cpu cortex-m4
   2              		.arch armv7e-m
   3              		.fpu fpv4-sp-d16
   4              		.eabi_attribute 27, 1
   5              		.eabi_attribute 28, 1
   6              		.eabi_attribute 20, 1
   7              		.eabi_attribute 21, 1
   8              		.eabi_attribute 23, 3
   9              		.eabi_attribute 24, 1
  10              		.eabi_attribute 25, 1
  11              		.eabi_attribute 26, 1
  12              		.eabi_attribute 30, 1
  13              		.eabi_attribute 34, 1
  14              		.eabi_attribute 18, 4
  15              		.file	"main.c"
  16              		.text
  17              	.Ltext0:
  18              		.cfi_sections	.debug_frame
  19              		.file 1 "Core/Src/main.c"
  20              		.section	.text.GPIO_init_led_pb7_blue,"ax",%progbits
  21              		.align	1
  22              		.global	GPIO_init_led_pb7_blue
  23              		.syntax unified
  24              		.thumb
  25              		.thumb_func
  27              	GPIO_init_led_pb7_blue:
  28              	.LFB130:
  29              		.file 2 "Core/Src/../Src/init.c"
   1:Core/Src/../Src/init.c **** #include "../Inc/init.h"
   2:Core/Src/../Src/init.c **** #include <stdint.h>
   3:Core/Src/../Src/init.c **** 
   4:Core/Src/../Src/init.c **** 
   5:Core/Src/../Src/init.c **** void GPIO_init_led_pb7_blue (void)
   6:Core/Src/../Src/init.c **** {
  30              		.loc 2 6 1 view -0
  31              		.cfi_startproc
  32              		@ args = 0, pretend = 0, frame = 0
  33              		@ frame_needed = 0, uses_anonymous_args = 0
  34              		@ link register save eliminated.
   7:Core/Src/../Src/init.c **** *(uint32_t *)(0x40023800UL + 0x30UL) |= 0x02UL;
  35              		.loc 2 7 1 view .LVU1
  36 0000 0F4A     		ldr	r2, .L2
  37 0002 D2F83038 		ldr	r3, [r2, #2096]
  38              		.loc 2 7 38 is_stmt 0 view .LVU2
  39 0006 43F00201 		orr	r1, r3, #2
  40 000a C2F83018 		str	r1, [r2, #2096]
   8:Core/Src/../Src/init.c **** *(uint32_t *)(0x40023800UL + 0x30UL) |= 0x06UL;
  41              		.loc 2 8 1 is_stmt 1 view .LVU3
  42              		.loc 2 8 38 is_stmt 0 view .LVU4
  43 000e 43F00603 		orr	r3, r3, #6
  44 0012 C2F83038 		str	r3, [r2, #2096]
   9:Core/Src/../Src/init.c **** *(uint32_t *)(0x40020400UL + 0x00UL) |= 0x4000UL;
  45              		.loc 2 9 1 is_stmt 1 view .LVU5
  46 0016 0B4B     		ldr	r3, .L2+4
  47 0018 D3F80024 		ldr	r2, [r3, #1024]
  48              		.loc 2 9 38 is_stmt 0 view .LVU6
  49 001c 42F48042 		orr	r2, r2, #16384
ARM GAS  C:\Users\Bebra\AppData\Local\Temp\ccM1EgPj.s 			page 2


  50 0020 C3F80024 		str	r2, [r3, #1024]
  10:Core/Src/../Src/init.c **** *(uint32_t *)(0x40020400UL + 0x04UL) |= 0x00UL;
  51              		.loc 2 10 1 is_stmt 1 view .LVU7
  11:Core/Src/../Src/init.c **** *(uint32_t *)(0x40020400UL + 0x08UL) |= 0x4000UL;
  52              		.loc 2 11 1 view .LVU8
  53 0024 D3F80824 		ldr	r2, [r3, #1032]
  54              		.loc 2 11 38 is_stmt 0 view .LVU9
  55 0028 42F48042 		orr	r2, r2, #16384
  56 002c C3F80824 		str	r2, [r3, #1032]
  12:Core/Src/../Src/init.c **** *(uint32_t *)(0x40020400UL + 0x18UL) |= 0x800000UL;
  57              		.loc 2 12 1 is_stmt 1 view .LVU10
  58 0030 D3F81824 		ldr	r2, [r3, #1048]
  59              		.loc 2 12 38 is_stmt 0 view .LVU11
  60 0034 42F40002 		orr	r2, r2, #8388608
  61 0038 C3F81824 		str	r2, [r3, #1048]
  13:Core/Src/../Src/init.c **** }
  62              		.loc 2 13 1 view .LVU12
  63 003c 7047     		bx	lr
  64              	.L3:
  65 003e 00BF     		.align	2
  66              	.L2:
  67 0040 00300240 		.word	1073885184
  68 0044 00000240 		.word	1073872896
  69              		.cfi_endproc
  70              	.LFE130:
  72              		.section	.text.GPIO_init_led_pb14_red,"ax",%progbits
  73              		.align	1
  74              		.global	GPIO_init_led_pb14_red
  75              		.syntax unified
  76              		.thumb
  77              		.thumb_func
  79              	GPIO_init_led_pb14_red:
  80              	.LFB131:
  14:Core/Src/../Src/init.c **** void GPIO_init_led_pb14_red (void)
  15:Core/Src/../Src/init.c **** {
  81              		.loc 2 15 1 is_stmt 1 view -0
  82              		.cfi_startproc
  83              		@ args = 0, pretend = 0, frame = 0
  84              		@ frame_needed = 0, uses_anonymous_args = 0
  85              		@ link register save eliminated.
  16:Core/Src/../Src/init.c ****     RCC_AHB1ENR |= RCC_GPIOB_EN | RCC_GPIOC_EN;
  86              		.loc 2 16 5 view .LVU14
  87 0000 0D4A     		ldr	r2, .L5
  88 0002 D2F83038 		ldr	r3, [r2, #2096]
  89              		.loc 2 16 17 is_stmt 0 view .LVU15
  90 0006 43F00603 		orr	r3, r3, #6
  91 000a C2F83038 		str	r3, [r2, #2096]
  17:Core/Src/../Src/init.c ****     BIT_SET(GPIOB_MODER, GPIO_PIN_OUT_14);
  92              		.loc 2 17 5 is_stmt 1 view .LVU16
  93 000e 0B4B     		ldr	r3, .L5+4
  94 0010 D3F80024 		ldr	r2, [r3, #1024]
  95 0014 42F08052 		orr	r2, r2, #268435456
  96 0018 C3F80024 		str	r2, [r3, #1024]
  18:Core/Src/../Src/init.c ****     BIT_SET(GPIOB_OTYPER, GPIO_OFF);
  97              		.loc 2 18 5 view .LVU17
  19:Core/Src/../Src/init.c ****     BIT_SET(GPIOB_OSPEEDR, GPIO_PIN_MED_14);
  98              		.loc 2 19 5 view .LVU18
ARM GAS  C:\Users\Bebra\AppData\Local\Temp\ccM1EgPj.s 			page 3


  99 001c D3F80824 		ldr	r2, [r3, #1032]
 100 0020 42F08052 		orr	r2, r2, #268435456
 101 0024 C3F80824 		str	r2, [r3, #1032]
  20:Core/Src/../Src/init.c ****     BIT_SET(GPIOB_BSRR, GPIO_PIN_RESET_14);
 102              		.loc 2 20 5 view .LVU19
 103 0028 D3F81824 		ldr	r2, [r3, #1048]
 104 002c 42F08042 		orr	r2, r2, #1073741824
 105 0030 C3F81824 		str	r2, [r3, #1048]
  21:Core/Src/../Src/init.c **** }
 106              		.loc 2 21 1 is_stmt 0 view .LVU20
 107 0034 7047     		bx	lr
 108              	.L6:
 109 0036 00BF     		.align	2
 110              	.L5:
 111 0038 00300240 		.word	1073885184
 112 003c 00000240 		.word	1073872896
 113              		.cfi_endproc
 114              	.LFE131:
 116              		.section	.text.GPIO_init_led_pb0_green,"ax",%progbits
 117              		.align	1
 118              		.global	GPIO_init_led_pb0_green
 119              		.syntax unified
 120              		.thumb
 121              		.thumb_func
 123              	GPIO_init_led_pb0_green:
 124              	.LFB132:
  22:Core/Src/../Src/init.c **** void GPIO_init_led_pb0_green (void)
  23:Core/Src/../Src/init.c **** {
 125              		.loc 2 23 1 is_stmt 1 view -0
 126              		.cfi_startproc
 127              		@ args = 0, pretend = 0, frame = 0
 128              		@ frame_needed = 0, uses_anonymous_args = 0
 129              		@ link register save eliminated.
  24:Core/Src/../Src/init.c ****    SET_BIT(RCC->AHB1ENR, RCC_AHB1ENR_GPIOBEN | RCC_AHB1ENR_GPIOCEN);
 130              		.loc 2 24 4 view .LVU22
 131 0000 0B4A     		ldr	r2, .L8
 132 0002 136B     		ldr	r3, [r2, #48]
 133 0004 43F00603 		orr	r3, r3, #6
 134 0008 1363     		str	r3, [r2, #48]
  25:Core/Src/../Src/init.c ****    SET_BIT(GPIOB->MODER, GPIO_MODER_MODE0_0);
 135              		.loc 2 25 4 view .LVU23
 136 000a 0A4B     		ldr	r3, .L8+4
 137 000c 1A68     		ldr	r2, [r3]
 138 000e 42F00102 		orr	r2, r2, #1
 139 0012 1A60     		str	r2, [r3]
  26:Core/Src/../Src/init.c ****    CLEAR_BIT(GPIOB->OTYPER,GPIO_OTYPER_OT_0);
 140              		.loc 2 26 4 view .LVU24
 141 0014 5A68     		ldr	r2, [r3, #4]
 142 0016 22F00102 		bic	r2, r2, #1
 143 001a 5A60     		str	r2, [r3, #4]
  27:Core/Src/../Src/init.c ****    SET_BIT(GPIOB->OSPEEDR, GPIO_OSPEEDER_OSPEEDR0_0);
 144              		.loc 2 27 4 view .LVU25
 145 001c 9A68     		ldr	r2, [r3, #8]
 146 001e 42F00102 		orr	r2, r2, #1
 147 0022 9A60     		str	r2, [r3, #8]
  28:Core/Src/../Src/init.c ****    SET_BIT(GPIOB->BSRR, GPIO_BSRR_BR0);
 148              		.loc 2 28 4 view .LVU26
ARM GAS  C:\Users\Bebra\AppData\Local\Temp\ccM1EgPj.s 			page 4


 149 0024 9A69     		ldr	r2, [r3, #24]
 150 0026 42F48032 		orr	r2, r2, #65536
 151 002a 9A61     		str	r2, [r3, #24]
  29:Core/Src/../Src/init.c **** }
 152              		.loc 2 29 1 is_stmt 0 view .LVU27
 153 002c 7047     		bx	lr
 154              	.L9:
 155 002e 00BF     		.align	2
 156              	.L8:
 157 0030 00380240 		.word	1073887232
 158 0034 00040240 		.word	1073873920
 159              		.cfi_endproc
 160              	.LFE132:
 162              		.section	.text.GPIO_button_input,"ax",%progbits
 163              		.align	1
 164              		.global	GPIO_button_input
 165              		.syntax unified
 166              		.thumb
 167              		.thumb_func
 169              	GPIO_button_input:
 170              	.LFB133:
  30:Core/Src/../Src/init.c **** void GPIO_button_input(void)
  31:Core/Src/../Src/init.c **** {
 171              		.loc 2 31 1 is_stmt 1 view -0
 172              		.cfi_startproc
 173              		@ args = 0, pretend = 0, frame = 0
 174              		@ frame_needed = 0, uses_anonymous_args = 0
 175              		@ link register save eliminated.
  32:Core/Src/../Src/init.c ****     
  33:Core/Src/../Src/init.c ****     CLEAR_BIT(GPIOC->MODER, GPIO_MODER_MODE8_0);
 176              		.loc 2 33 5 view .LVU29
 177 0000 044B     		ldr	r3, .L11
 178 0002 1A68     		ldr	r2, [r3]
 179 0004 22F48032 		bic	r2, r2, #65536
 180 0008 1A60     		str	r2, [r3]
  34:Core/Src/../Src/init.c ****     CLEAR_BIT(GPIOC->PUPDR, GPIO_PUPDR_PUPDR8_0);
 181              		.loc 2 34 5 view .LVU30
 182 000a DA68     		ldr	r2, [r3, #12]
 183 000c 22F48032 		bic	r2, r2, #65536
 184 0010 DA60     		str	r2, [r3, #12]
  35:Core/Src/../Src/init.c **** }
 185              		.loc 2 35 1 is_stmt 0 view .LVU31
 186 0012 7047     		bx	lr
 187              	.L12:
 188              		.align	2
 189              	.L11:
 190 0014 00080240 		.word	1073874944
 191              		.cfi_endproc
 192              	.LFE133:
 194              		.section	.text.UpdateLEDs,"ax",%progbits
 195              		.align	1
 196              		.global	UpdateLEDs
 197              		.syntax unified
 198              		.thumb
 199              		.thumb_func
 201              	UpdateLEDs:
 202              	.LFB134:
ARM GAS  C:\Users\Bebra\AppData\Local\Temp\ccM1EgPj.s 			page 5


   1:Core/Src/main.c **** #include "../Inc/init.h"
   2:Core/Src/main.c **** #include "../Src/init.c"
   3:Core/Src/main.c **** 
   4:Core/Src/main.c **** 
   5:Core/Src/main.c **** 
   6:Core/Src/main.c **** 
   7:Core/Src/main.c **** 
   8:Core/Src/main.c **** 
   9:Core/Src/main.c **** 
  10:Core/Src/main.c **** 
  11:Core/Src/main.c **** uint8_t flag1 =0;
  12:Core/Src/main.c **** uint8_t flag2 =0;
  13:Core/Src/main.c **** uint8_t current_led_indx = 2;
  14:Core/Src/main.c **** uint8_t led_count = 0;
  15:Core/Src/main.c **** uint8_t timerbutton1,timerbutton2,led_index = 0;
  16:Core/Src/main.c ****    
  17:Core/Src/main.c **** static uint8_t frequency_index = 0;       
  18:Core/Src/main.c **** const uint32_t frequencies[4] = {1000000, 500000, 250000, 125000};
  19:Core/Src/main.c **** static uint32_t avtodelay = frequencies[1];
  20:Core/Src/main.c ****  void UpdateLEDs(void)
  21:Core/Src/main.c ****     {
 203              		.loc 1 21 5 is_stmt 1 view -0
 204              		.cfi_startproc
 205              		@ args = 0, pretend = 0, frame = 0
 206              		@ frame_needed = 0, uses_anonymous_args = 0
 207              		@ link register save eliminated.
  22:Core/Src/main.c ****         SET_BIT(GPIOB->BSRR, GPIO_BSRR_BR0 |GPIO_BSRR_BR7 | GPIO_BSRR_BR14 );
 208              		.loc 1 22 9 view .LVU33
 209 0000 194A     		ldr	r2, .L20
 210 0002 9369     		ldr	r3, [r2, #24]
 211 0004 43F08143 		orr	r3, r3, #1082130432
 212 0008 43F48033 		orr	r3, r3, #65536
 213 000c 9361     		str	r3, [r2, #24]
  23:Core/Src/main.c ****         
  24:Core/Src/main.c ****     for (uint8_t i = 0; i <= led_count; i++) 
 214              		.loc 1 24 5 view .LVU34
 215              	.LBB2:
 216              		.loc 1 24 10 view .LVU35
 217              	.LVL0:
 218              		.loc 1 24 18 is_stmt 0 view .LVU36
 219 000e 0022     		movs	r2, #0
 220              		.loc 1 24 5 view .LVU37
 221 0010 06E0     		b	.L14
 222              	.LVL1:
 223              	.L15:
 224              	.LBB3:
  25:Core/Src/main.c ****         {
  26:Core/Src/main.c ****         uint8_t led_index = ((current_led_indx + i) % 3);
  27:Core/Src/main.c ****         switch (led_index) 
  28:Core/Src/main.c ****             {
  29:Core/Src/main.c ****             case 0:
  30:Core/Src/main.c ****                 SET_BIT(GPIOB->BSRR, GPIO_BSRR_BS0);  // PB0
  31:Core/Src/main.c ****                 break;
  32:Core/Src/main.c ****             case 1:
  33:Core/Src/main.c ****                 SET_BIT(GPIOB->BSRR, GPIO_BSRR_BS7);  // PB7
 225              		.loc 1 33 17 is_stmt 1 view .LVU38
 226 0012 1549     		ldr	r1, .L20
ARM GAS  C:\Users\Bebra\AppData\Local\Temp\ccM1EgPj.s 			page 6


 227 0014 8B69     		ldr	r3, [r1, #24]
 228              	.LVL2:
 229              		.loc 1 33 17 is_stmt 0 view .LVU39
 230 0016 43F08003 		orr	r3, r3, #128
 231 001a 8B61     		str	r3, [r1, #24]
 232              	.LVL3:
  34:Core/Src/main.c ****                 break;
 233              		.loc 1 34 17 is_stmt 1 view .LVU40
 234              	.L17:
 235              	.LBE3:
  24:Core/Src/main.c ****         {
 236              		.loc 1 24 42 discriminator 2 view .LVU41
 237 001c 0132     		adds	r2, r2, #1
 238              	.LVL4:
  24:Core/Src/main.c ****         {
 239              		.loc 1 24 42 is_stmt 0 discriminator 2 view .LVU42
 240 001e D2B2     		uxtb	r2, r2
 241              	.LVL5:
 242              	.L14:
  24:Core/Src/main.c ****         {
 243              		.loc 1 24 27 is_stmt 1 discriminator 1 view .LVU43
 244 0020 124B     		ldr	r3, .L20+4
 245 0022 1B78     		ldrb	r3, [r3]	@ zero_extendqisi2
 246 0024 9342     		cmp	r3, r2
 247 0026 1DD3     		bcc	.L19
 248              	.LBB4:
  26:Core/Src/main.c ****         switch (led_index) 
 249              		.loc 1 26 9 view .LVU44
  26:Core/Src/main.c ****         switch (led_index) 
 250              		.loc 1 26 48 is_stmt 0 view .LVU45
 251 0028 114B     		ldr	r3, .L20+8
 252 002a 1978     		ldrb	r1, [r3]	@ zero_extendqisi2
 253 002c 1144     		add	r1, r1, r2
  26:Core/Src/main.c ****         switch (led_index) 
 254              		.loc 1 26 53 view .LVU46
 255 002e 114B     		ldr	r3, .L20+12
 256 0030 83FB0103 		smull	r0, r3, r3, r1
 257 0034 A3EBE173 		sub	r3, r3, r1, asr #31
 258 0038 03EB4303 		add	r3, r3, r3, lsl #1
 259 003c CB1A     		subs	r3, r1, r3
 260              	.LVL6:
  27:Core/Src/main.c ****             {
 261              		.loc 1 27 9 is_stmt 1 view .LVU47
 262 003e DBB2     		uxtb	r3, r3
  27:Core/Src/main.c ****             {
 263              		.loc 1 27 9 is_stmt 0 view .LVU48
 264 0040 012B     		cmp	r3, #1
 265 0042 E6D0     		beq	.L15
 266 0044 022B     		cmp	r3, #2
 267 0046 07D0     		beq	.L16
 268 0048 002B     		cmp	r3, #0
 269 004a E7D1     		bne	.L17
  30:Core/Src/main.c ****                 break;
 270              		.loc 1 30 17 is_stmt 1 view .LVU49
 271 004c 0649     		ldr	r1, .L20
 272 004e 8B69     		ldr	r3, [r1, #24]
 273              	.LVL7:
ARM GAS  C:\Users\Bebra\AppData\Local\Temp\ccM1EgPj.s 			page 7


  30:Core/Src/main.c ****                 break;
 274              		.loc 1 30 17 is_stmt 0 view .LVU50
 275 0050 43F00103 		orr	r3, r3, #1
 276 0054 8B61     		str	r3, [r1, #24]
 277              	.LVL8:
  31:Core/Src/main.c ****             case 1:
 278              		.loc 1 31 17 is_stmt 1 view .LVU51
 279 0056 E1E7     		b	.L17
 280              	.LVL9:
 281              	.L16:
  35:Core/Src/main.c ****             case 2:
  36:Core/Src/main.c ****                 SET_BIT(GPIOB->BSRR, GPIO_BSRR_BS14); // PB14
 282              		.loc 1 36 17 view .LVU52
 283 0058 0349     		ldr	r1, .L20
 284 005a 8B69     		ldr	r3, [r1, #24]
 285              	.LVL10:
 286              		.loc 1 36 17 is_stmt 0 view .LVU53
 287 005c 43F48043 		orr	r3, r3, #16384
 288 0060 8B61     		str	r3, [r1, #24]
 289              	.LVL11:
  37:Core/Src/main.c ****                 break;
 290              		.loc 1 37 17 is_stmt 1 view .LVU54
 291 0062 DBE7     		b	.L17
 292              	.LVL12:
 293              	.L19:
 294              		.loc 1 37 17 is_stmt 0 view .LVU55
 295              	.LBE4:
 296              	.LBE2:
  38:Core/Src/main.c **** 
  39:Core/Src/main.c ****             
  40:Core/Src/main.c ****             }
  41:Core/Src/main.c ****         }
  42:Core/Src/main.c ****     }
 297              		.loc 1 42 5 view .LVU56
 298 0064 7047     		bx	lr
 299              	.L21:
 300 0066 00BF     		.align	2
 301              	.L20:
 302 0068 00040240 		.word	1073873920
 303 006c 00000000 		.word	led_count
 304 0070 00000000 		.word	current_led_indx
 305 0074 56555555 		.word	1431655766
 306              		.cfi_endproc
 307              	.LFE134:
 309              		.section	.text.main,"ax",%progbits
 310              		.align	1
 311              		.global	main
 312              		.syntax unified
 313              		.thumb
 314              		.thumb_func
 316              	main:
 317              	.LFB135:
  43:Core/Src/main.c ****     // для доп задания
  44:Core/Src/main.c ****     /*
  45:Core/Src/main.c ****       void avtoper(uint32_t avtodelay)
  46:Core/Src/main.c ****         {
  47:Core/Src/main.c ****             if(led_count == 3)
ARM GAS  C:\Users\Bebra\AppData\Local\Temp\ccM1EgPj.s 			page 8


  48:Core/Src/main.c ****             {
  49:Core/Src/main.c ****                 SET_BIT(GPIOB->BSRR, GPIO_BSRR_BR0 |GPIO_BSRR_BR7 | GPIO_BSRR_BR14 );
  50:Core/Src/main.c ****                 for(volatile uint32_t i = 0; i < avtodelay; i++){}
  51:Core/Src/main.c ****                 SET_BIT(GPIOB->BSRR, GPIO_BSRR_BS0 |GPIO_BSRR_BS7 | GPIO_BSRR_BS14 );
  52:Core/Src/main.c ****                 for(volatile uint32_t i = 0; i < avtodelay; i++){}
  53:Core/Src/main.c ****             }
  54:Core/Src/main.c ****             else{
  55:Core/Src/main.c ****             current_led_indx = (current_led_indx + 1) % 3;
  56:Core/Src/main.c ****             for(volatile uint32_t i = 0; i < avtodelay; i++){}
  57:Core/Src/main.c ****             UpdateLEDs();
  58:Core/Src/main.c ****             }
  59:Core/Src/main.c ****         }
  60:Core/Src/main.c ****             */
  61:Core/Src/main.c **** int main(void)
  62:Core/Src/main.c **** { 
 318              		.loc 1 62 1 is_stmt 1 view -0
 319              		.cfi_startproc
 320              		@ Volatile: function does not return.
 321              		@ args = 0, pretend = 0, frame = 16
 322              		@ frame_needed = 0, uses_anonymous_args = 0
 323 0000 00B5     		push	{lr}
 324              	.LCFI0:
 325              		.cfi_def_cfa_offset 4
 326              		.cfi_offset 14, -4
 327 0002 85B0     		sub	sp, sp, #20
 328              	.LCFI1:
 329              		.cfi_def_cfa_offset 24
  63:Core/Src/main.c ****  GPIO_init_led_pb7_blue ();
 330              		.loc 1 63 2 view .LVU58
 331 0004 FFF7FEFF 		bl	GPIO_init_led_pb7_blue
 332              	.LVL13:
  64:Core/Src/main.c ****  GPIO_init_led_pb14_red ();
 333              		.loc 1 64 2 view .LVU59
 334 0008 FFF7FEFF 		bl	GPIO_init_led_pb14_red
 335              	.LVL14:
  65:Core/Src/main.c ****  GPIO_init_led_pb0_green ();
 336              		.loc 1 65 2 view .LVU60
 337 000c FFF7FEFF 		bl	GPIO_init_led_pb0_green
 338              	.LVL15:
  66:Core/Src/main.c ****  GPIO_button_input();
 339              		.loc 1 66 2 view .LVU61
 340 0010 FFF7FEFF 		bl	GPIO_button_input
 341              	.LVL16:
 342 0014 32E0     		b	.L23
 343              	.L37:
  67:Core/Src/main.c ****     while (1)
  68:Core/Src/main.c ****     {
  69:Core/Src/main.c ****        if (BIT_READ(GPIOC_IDR, GPIO_PIN_8)){
  70:Core/Src/main.c ****         flag1 = 1;
 344              		.loc 1 70 9 view .LVU62
 345              		.loc 1 70 15 is_stmt 0 view .LVU63
 346 0016 2D4B     		ldr	r3, .L38
 347 0018 0122     		movs	r2, #1
 348 001a 1A70     		strb	r2, [r3]
  71:Core/Src/main.c ****         current_led_indx = (current_led_indx + 1) % 3;
 349              		.loc 1 71 9 is_stmt 1 view .LVU64
 350              		.loc 1 71 46 is_stmt 0 view .LVU65
ARM GAS  C:\Users\Bebra\AppData\Local\Temp\ccM1EgPj.s 			page 9


 351 001c 2C49     		ldr	r1, .L38+4
 352 001e 0A78     		ldrb	r2, [r1]	@ zero_extendqisi2
 353 0020 0132     		adds	r2, r2, #1
 354              		.loc 1 71 51 view .LVU66
 355 0022 2C4B     		ldr	r3, .L38+8
 356 0024 83FB0203 		smull	r0, r3, r3, r2
 357 0028 03EB4303 		add	r3, r3, r3, lsl #1
 358 002c D31A     		subs	r3, r2, r3
 359              		.loc 1 71 26 view .LVU67
 360 002e 0B70     		strb	r3, [r1]
  72:Core/Src/main.c ****         if(led_count == 2){
 361              		.loc 1 72 9 is_stmt 1 view .LVU68
 362              		.loc 1 72 22 is_stmt 0 view .LVU69
 363 0030 294B     		ldr	r3, .L38+12
 364 0032 1B78     		ldrb	r3, [r3]	@ zero_extendqisi2
 365              		.loc 1 72 11 view .LVU70
 366 0034 022B     		cmp	r3, #2
 367 0036 04D0     		beq	.L36
 368              	.L25:
  73:Core/Src/main.c ****             SET_BIT(GPIOB->BSRR, GPIO_BSRR_BR0 |GPIO_BSRR_BR7 | GPIO_BSRR_BR14 );
  74:Core/Src/main.c ****             for(volatile uint32_t i = 0; i < 100000; i++){}
  75:Core/Src/main.c ****         }
  76:Core/Src/main.c ****         UpdateLEDs();
 369              		.loc 1 76 9 is_stmt 1 view .LVU71
 370 0038 FFF7FEFF 		bl	UpdateLEDs
 371              	.LVL17:
  77:Core/Src/main.c ****         for(volatile uint32_t i = 0; i < 1000000; i++);
 372              		.loc 1 77 9 view .LVU72
 373              	.LBB5:
 374              		.loc 1 77 13 view .LVU73
 375              		.loc 1 77 31 is_stmt 0 view .LVU74
 376 003c 0023     		movs	r3, #0
 377 003e 0293     		str	r3, [sp, #8]
 378              		.loc 1 77 9 view .LVU75
 379 0040 14E0     		b	.L28
 380              	.L36:
 381              	.LBE5:
  73:Core/Src/main.c ****             SET_BIT(GPIOB->BSRR, GPIO_BSRR_BR0 |GPIO_BSRR_BR7 | GPIO_BSRR_BR14 );
 382              		.loc 1 73 13 is_stmt 1 view .LVU76
 383 0042 264A     		ldr	r2, .L38+16
 384 0044 9369     		ldr	r3, [r2, #24]
 385 0046 43F08143 		orr	r3, r3, #1082130432
 386 004a 43F48033 		orr	r3, r3, #65536
 387 004e 9361     		str	r3, [r2, #24]
  74:Core/Src/main.c ****         }
 388              		.loc 1 74 13 view .LVU77
 389              	.LBB6:
  74:Core/Src/main.c ****         }
 390              		.loc 1 74 17 view .LVU78
  74:Core/Src/main.c ****         }
 391              		.loc 1 74 35 is_stmt 0 view .LVU79
 392 0050 0023     		movs	r3, #0
 393 0052 0193     		str	r3, [sp, #4]
  74:Core/Src/main.c ****         }
 394              		.loc 1 74 13 view .LVU80
 395 0054 02E0     		b	.L26
 396              	.L27:
ARM GAS  C:\Users\Bebra\AppData\Local\Temp\ccM1EgPj.s 			page 10


  74:Core/Src/main.c ****         }
 397              		.loc 1 74 59 is_stmt 1 discriminator 3 view .LVU81
  74:Core/Src/main.c ****         }
 398              		.loc 1 74 55 discriminator 3 view .LVU82
 399 0056 019B     		ldr	r3, [sp, #4]
 400 0058 0133     		adds	r3, r3, #1
 401 005a 0193     		str	r3, [sp, #4]
 402              	.L26:
  74:Core/Src/main.c ****         }
 403              		.loc 1 74 44 discriminator 1 view .LVU83
 404 005c 019A     		ldr	r2, [sp, #4]
 405 005e 204B     		ldr	r3, .L38+20
 406 0060 9A42     		cmp	r2, r3
 407 0062 F8D9     		bls	.L27
 408 0064 E8E7     		b	.L25
 409              	.L29:
 410              	.LBE6:
 411              	.LBB7:
 412              		.loc 1 77 52 discriminator 3 view .LVU84
 413 0066 029B     		ldr	r3, [sp, #8]
 414 0068 0133     		adds	r3, r3, #1
 415 006a 0293     		str	r3, [sp, #8]
 416              	.L28:
 417              		.loc 1 77 40 discriminator 1 view .LVU85
 418 006c 029A     		ldr	r2, [sp, #8]
 419 006e 1D4B     		ldr	r3, .L38+24
 420 0070 9A42     		cmp	r2, r3
 421 0072 F8D9     		bls	.L29
 422 0074 0BE0     		b	.L30
 423              	.L31:
 424              	.LBE7:
  78:Core/Src/main.c ****        }
  79:Core/Src/main.c ****        else{
  80:Core/Src/main.c ****         flag1 = 0;
  81:Core/Src/main.c ****        }
  82:Core/Src/main.c ****        if (BIT_READ(GPIOC_IDR, GPIO_PIN_13)){
  83:Core/Src/main.c ****         flag2 = 1;
  84:Core/Src/main.c ****         led_count = ((led_count+1))%3;
  85:Core/Src/main.c ****        
  86:Core/Src/main.c ****         UpdateLEDs();
  87:Core/Src/main.c ****        for(volatile uint32_t i = 0; i < 1000000; i++);
  88:Core/Src/main.c ****        }
  89:Core/Src/main.c ****        else{
  90:Core/Src/main.c ****         flag2 = 0;
 425              		.loc 1 90 9 view .LVU86
 426              		.loc 1 90 15 is_stmt 0 view .LVU87
 427 0076 1C4B     		ldr	r3, .L38+28
 428 0078 0022     		movs	r2, #0
 429 007a 1A70     		strb	r2, [r3]
 430              	.L23:
  67:Core/Src/main.c ****     {
 431              		.loc 1 67 5 is_stmt 1 view .LVU88
  69:Core/Src/main.c ****         flag1 = 1;
 432              		.loc 1 69 8 view .LVU89
  69:Core/Src/main.c ****         flag1 = 1;
 433              		.loc 1 69 12 is_stmt 0 view .LVU90
 434 007c 1B4B     		ldr	r3, .L38+32
ARM GAS  C:\Users\Bebra\AppData\Local\Temp\ccM1EgPj.s 			page 11


 435 007e D3F81038 		ldr	r3, [r3, #2064]
  69:Core/Src/main.c ****         flag1 = 1;
 436              		.loc 1 69 11 view .LVU91
 437 0082 13F4807F 		tst	r3, #256
 438 0086 C6D1     		bne	.L37
  80:Core/Src/main.c ****        }
 439              		.loc 1 80 9 is_stmt 1 view .LVU92
  80:Core/Src/main.c ****        }
 440              		.loc 1 80 15 is_stmt 0 view .LVU93
 441 0088 104B     		ldr	r3, .L38
 442 008a 0022     		movs	r2, #0
 443 008c 1A70     		strb	r2, [r3]
 444              	.L30:
  82:Core/Src/main.c ****         flag2 = 1;
 445              		.loc 1 82 8 is_stmt 1 view .LVU94
  82:Core/Src/main.c ****         flag2 = 1;
 446              		.loc 1 82 12 is_stmt 0 view .LVU95
 447 008e 174B     		ldr	r3, .L38+32
 448 0090 D3F81038 		ldr	r3, [r3, #2064]
  82:Core/Src/main.c ****         flag2 = 1;
 449              		.loc 1 82 11 view .LVU96
 450 0094 13F4005F 		tst	r3, #8192
 451 0098 EDD0     		beq	.L31
  83:Core/Src/main.c ****         led_count = ((led_count+1))%3;
 452              		.loc 1 83 9 is_stmt 1 view .LVU97
  83:Core/Src/main.c ****         led_count = ((led_count+1))%3;
 453              		.loc 1 83 15 is_stmt 0 view .LVU98
 454 009a 134B     		ldr	r3, .L38+28
 455 009c 0122     		movs	r2, #1
 456 009e 1A70     		strb	r2, [r3]
  84:Core/Src/main.c ****        
 457              		.loc 1 84 9 is_stmt 1 view .LVU99
  84:Core/Src/main.c ****        
 458              		.loc 1 84 32 is_stmt 0 view .LVU100
 459 00a0 0D49     		ldr	r1, .L38+12
 460 00a2 0A78     		ldrb	r2, [r1]	@ zero_extendqisi2
 461 00a4 0132     		adds	r2, r2, #1
  84:Core/Src/main.c ****        
 462              		.loc 1 84 36 view .LVU101
 463 00a6 0B4B     		ldr	r3, .L38+8
 464 00a8 83FB0203 		smull	r0, r3, r3, r2
 465 00ac 03EB4303 		add	r3, r3, r3, lsl #1
 466 00b0 D31A     		subs	r3, r2, r3
  84:Core/Src/main.c ****        
 467              		.loc 1 84 19 view .LVU102
 468 00b2 0B70     		strb	r3, [r1]
  86:Core/Src/main.c ****        for(volatile uint32_t i = 0; i < 1000000; i++);
 469              		.loc 1 86 9 is_stmt 1 view .LVU103
 470 00b4 FFF7FEFF 		bl	UpdateLEDs
 471              	.LVL18:
  87:Core/Src/main.c ****        }
 472              		.loc 1 87 8 view .LVU104
 473              	.LBB8:
  87:Core/Src/main.c ****        }
 474              		.loc 1 87 12 view .LVU105
  87:Core/Src/main.c ****        }
 475              		.loc 1 87 30 is_stmt 0 view .LVU106
ARM GAS  C:\Users\Bebra\AppData\Local\Temp\ccM1EgPj.s 			page 12


 476 00b8 0023     		movs	r3, #0
 477 00ba 0393     		str	r3, [sp, #12]
 478              	.L32:
  87:Core/Src/main.c ****        }
 479              		.loc 1 87 39 is_stmt 1 discriminator 1 view .LVU107
 480 00bc 039A     		ldr	r2, [sp, #12]
 481 00be 094B     		ldr	r3, .L38+24
 482 00c0 9A42     		cmp	r2, r3
 483 00c2 DBD8     		bhi	.L23
  87:Core/Src/main.c ****        }
 484              		.loc 1 87 51 discriminator 3 view .LVU108
 485 00c4 039B     		ldr	r3, [sp, #12]
 486 00c6 0133     		adds	r3, r3, #1
 487 00c8 0393     		str	r3, [sp, #12]
 488 00ca F7E7     		b	.L32
 489              	.L39:
 490              		.align	2
 491              	.L38:
 492 00cc 00000000 		.word	flag1
 493 00d0 00000000 		.word	current_led_indx
 494 00d4 56555555 		.word	1431655766
 495 00d8 00000000 		.word	led_count
 496 00dc 00040240 		.word	1073873920
 497 00e0 9F860100 		.word	99999
 498 00e4 3F420F00 		.word	999999
 499 00e8 00000000 		.word	flag2
 500 00ec 00000240 		.word	1073872896
 501              	.LBE8:
 502              		.cfi_endproc
 503              	.LFE135:
 505              		.global	frequencies
 506              		.section	.rodata.frequencies,"a"
 507              		.align	2
 510              	frequencies:
 511 0000 40420F00 		.word	1000000
 512 0004 20A10700 		.word	500000
 513 0008 90D00300 		.word	250000
 514 000c 48E80100 		.word	125000
 515              		.global	led_index
 516              		.section	.bss.led_index,"aw",%nobits
 519              	led_index:
 520 0000 00       		.space	1
 521              		.global	timerbutton2
 522              		.section	.bss.timerbutton2,"aw",%nobits
 525              	timerbutton2:
 526 0000 00       		.space	1
 527              		.global	timerbutton1
 528              		.section	.bss.timerbutton1,"aw",%nobits
 531              	timerbutton1:
 532 0000 00       		.space	1
 533              		.global	led_count
 534              		.section	.bss.led_count,"aw",%nobits
 537              	led_count:
 538 0000 00       		.space	1
 539              		.global	current_led_indx
 540              		.section	.data.current_led_indx,"aw"
 543              	current_led_indx:
ARM GAS  C:\Users\Bebra\AppData\Local\Temp\ccM1EgPj.s 			page 13


 544 0000 02       		.byte	2
 545              		.global	flag2
 546              		.section	.bss.flag2,"aw",%nobits
 549              	flag2:
 550 0000 00       		.space	1
 551              		.global	flag1
 552              		.section	.bss.flag1,"aw",%nobits
 555              	flag1:
 556 0000 00       		.space	1
 557              		.text
 558              	.Letext0:
 559              		.file 3 "C:/Tools/GCC/xpack-arm-none-eabi-gcc-13.2.1-1.1/arm-none-eabi/include/machine/_default_ty
 560              		.file 4 "C:/Tools/GCC/xpack-arm-none-eabi-gcc-13.2.1-1.1/arm-none-eabi/include/sys/_stdint.h"
 561              		.file 5 "Core/Src/../Inc/../../CMSIS/Devices/STM32F4xx/Inc/STM32F429ZI/stm32f429xx.h"
ARM GAS  C:\Users\Bebra\AppData\Local\Temp\ccM1EgPj.s 			page 14

